; Function Attrs: mustprogress nounwind uwtable
define hidden void @_ZN6Assimp4Ogre7MeshXml5ResetEv(ptr noundef nonnull align 8 captures(none) dereferenceable(72) %0) local_unnamed_addr #6 align 2 personality ptr @__gxx_personality_v0 {
  %2 = getelementptr inbounds nuw i8, ptr %0, i64 32
  %3 = load ptr, ptr %2, align 8
  %4 = icmp eq ptr %3, null
  br i1 %4, label %21, label %5

5:                                                ; preds = %1
  tail call void @_ZN6Assimp4Ogre8Skeleton5ResetEv(ptr noundef nonnull align 8 dereferenceable(52) %3)
  %6 = getelementptr inbounds nuw i8, ptr %3, i64 24
  %7 = load ptr, ptr %6, align 8
  %.not.i.i.i.i = icmp eq ptr %7, null
  br i1 %.not.i.i.i.i, label %_ZNSt6vectorIPN6Assimp4Ogre9AnimationESaIS3_EED2Ev.exit.i, label %8

8:                                                ; preds = %5
  %9 = getelementptr inbounds nuw i8, ptr %3, i64 40
  %10 = load ptr, ptr %9, align 8
  %11 = ptrtoint ptr %10 to i64
  %12 = ptrtoint ptr %7 to i64
  %13 = sub i64 %11, %12
  tail call void @_ZdlPvm(ptr noundef nonnull %7, i64 noundef %13) #34
  br label %_ZNSt6vectorIPN6Assimp4Ogre9AnimationESaIS3_EED2Ev.exit.i

_ZNSt6vectorIPN6Assimp4Ogre9AnimationESaIS3_EED2Ev.exit.i: ; preds = %8, %5
  %14 = load ptr, ptr %3, align 8
  %.not.i.i.i1.i = icmp eq ptr %14, null
  br i1 %.not.i.i.i1.i, label %_ZN6Assimp4Ogre8SkeletonD2Ev.exit, label %15

15:                                               ; preds = %_ZNSt6vectorIPN6Assimp4Ogre9AnimationESaIS3_EED2Ev.exit.i
  %16 = getelementptr inbounds nuw i8, ptr %3, i64 16
  %17 = load ptr, ptr %16, align 8
  %18 = ptrtoint ptr %17 to i64
  %19 = ptrtoint ptr %14 to i64
  %20 = sub i64 %18, %19
  tail call void @_ZdlPvm(ptr noundef nonnull %14, i64 noundef %20) #34
  br label %_ZN6Assimp4Ogre8SkeletonD2Ev.exit

_ZN6Assimp4Ogre8SkeletonD2Ev.exit:                ; preds = %_ZNSt6vectorIPN6Assimp4Ogre9AnimationESaIS3_EED2Ev.exit.i, %15
  tail call void @_ZdlPvm(ptr noundef nonnull %3, i64 noundef 56) #34
  br label %21

21:                                               ; preds = %_ZN6Assimp4Ogre8SkeletonD2Ev.exit, %1
  store ptr null, ptr %2, align 8
  %22 = getelementptr inbounds nuw i8, ptr %0, i64 40
  %23 = load ptr, ptr %22, align 8
  %24 = icmp eq ptr %23, null
  br i1 %24, label %26, label %25

25:                                               ; preds = %21
  tail call void @_ZN6Assimp4Ogre13VertexDataXmlD2Ev(ptr noundef nonnull align 8 dereferenceable(224) %23) #31
  tail call void @_ZdlPvm(ptr noundef nonnull %23, i64 noundef 224) #34
  br label %26

26:                                               ; preds = %25, %21
  store ptr null, ptr %22, align 8
  %27 = getelementptr inbounds nuw i8, ptr %0, i64 48
  %28 = load ptr, ptr %27, align 8
  %29 = getelementptr inbounds nuw i8, ptr %0, i64 56
  %30 = load ptr, ptr %29, align 8
  %.not10 = icmp eq ptr %28, %30
  br i1 %.not10, label %_ZNSt6vectorIPN6Assimp4Ogre10SubMeshXmlESaIS3_EE5clearEv.exit, label %.lr.ph

._crit_edge:                                      ; preds = %35
  %.pre = load ptr, ptr %27, align 8
  %.pre12 = load ptr, ptr %29, align 8
  %.not.i.i = icmp eq ptr %.pre12, %.pre
  br i1 %.not.i.i, label %_ZNSt6vectorIPN6Assimp4Ogre10SubMeshXmlESaIS3_EE5clearEv.exit, label %31

31:                                               ; preds = %._crit_edge
  store ptr %.pre, ptr %29, align 8
  br label %_ZNSt6vectorIPN6Assimp4Ogre10SubMeshXmlESaIS3_EE5clearEv.exit

_ZNSt6vectorIPN6Assimp4Ogre10SubMeshXmlESaIS3_EE5clearEv.exit: ; preds = %26, %._crit_edge, %31
  ret void

.lr.ph:                                           ; preds = %26, %35
  %.sroa.07.011 = phi ptr [ %36, %35 ], [ %28, %26 ]
  %32 = load ptr, ptr %.sroa.07.011, align 8
  %33 = icmp eq ptr %32, null
  br i1 %33, label %35, label %34

34:                                               ; preds = %.lr.ph
  tail call void @_ZN6Assimp4Ogre10SubMeshXmlD2Ev(ptr noundef nonnull align 8 dereferenceable(168) %32) #31
  tail call void @_ZdlPvm(ptr noundef nonnull %32, i64 noundef 168) #34
  br label %35

35:                                               ; preds = %34, %.lr.ph
  store ptr null, ptr %.sroa.07.011, align 8
  %36 = getelementptr inbounds nuw i8, ptr %.sroa.07.011, i64 8
  %.not = icmp eq ptr %36, %30
  br i1 %.not, label %._crit_edge, label %.lr.ph
}